; Function Attrs: mustprogress nofree norecurse nosync nounwind willreturn memory(none) uwtable
define range(i32 -65535, 65536) i32 @lv_trigo_cos(i16 noundef signext %0) local_unnamed_addr #0 {
  %2 = add i16 %0, 90
  %smax.i = tail call i16 @llvm.smax.i16(i16 %2, i16 0)
  %.lobit.i.neg2 = ashr i16 %2, 15
  %.lobit.i = lshr i16 %2, 15
  %reass.sub = sub i16 %.lobit.i.neg2, %0
  %.neg1 = add i16 %reass.sub, -90
  %3 = add i16 %.neg1, %smax.i
  %4 = udiv i16 %3, 360
  %5 = add nuw nsw i16 %4, %.lobit.i
  %6 = mul i16 %5, 360
  %7 = add i16 %6, %2
  %8 = tail call i16 @llvm.umax.i16(i16 %7, i16 359)
  %9 = urem i16 %8, 360
  %.neg.i = sub i16 %9, %8
  %10 = add i16 %.neg.i, %7
  %11 = icmp ult i16 %10, 90
  br i1 %11, label %12, label %17

12:                                               ; preds = %1
  %13 = zext nneg i16 %10 to i64
  %14 = getelementptr inbounds [91 x i16], ptr @sin0_90_table, i64 0, i64 %13
  %15 = load i16, ptr %14, align 2, !tbaa !3
  %16 = zext i16 %15 to i32
  br label %41

17:                                               ; preds = %1
  %18 = icmp ult i16 %10, 180
  br i1 %18, label %19, label %25

19:                                               ; preds = %17
  %20 = sub nuw nsw i16 180, %10
  %21 = zext nneg i16 %20 to i64
  %22 = getelementptr inbounds [91 x i16], ptr @sin0_90_table, i64 0, i64 %21
  %23 = load i16, ptr %22, align 2, !tbaa !3
  %24 = zext i16 %23 to i32
  br label %41

25:                                               ; preds = %17
  %26 = icmp ult i16 %10, 270
  br i1 %26, label %27, label %34

27:                                               ; preds = %25
  %28 = add nsw i16 %10, -180
  %29 = zext nneg i16 %28 to i64
  %30 = getelementptr inbounds [91 x i16], ptr @sin0_90_table, i64 0, i64 %29
  %31 = load i16, ptr %30, align 2, !tbaa !3
  %32 = zext i16 %31 to i32
  %33 = sub nsw i32 0, %32
  br label %41

34:                                               ; preds = %25
  %35 = sub nuw nsw i16 360, %10
  %36 = zext nneg i16 %35 to i64
  %37 = getelementptr inbounds [91 x i16], ptr @sin0_90_table, i64 0, i64 %36
  %38 = load i16, ptr %37, align 2, !tbaa !3
  %39 = zext i16 %38 to i32
  %40 = sub nsw i32 0, %39
  br label %41

41:                                               ; preds = %34, %27, %19, %12
  %.0.i = phi i32 [ %16, %12 ], [ %24, %19 ], [ %33, %27 ], [ %40, %34 ]
  switch i32 %.0.i, label %43 [
    i32 32767, label %lv_trigo_sin.exit
    i32 -32767, label %42
  ]

42:                                               ; preds = %41
  br label %lv_trigo_sin.exit

43:                                               ; preds = %41
  br label %lv_trigo_sin.exit

lv_trigo_sin.exit:                                ; preds = %41, %42, %43
  %.026.i = phi i32 [ -32768, %42 ], [ %.0.i, %43 ], [ 32768, %41 ]
  ret i32 %.026.i
}